target datalayout = "e-m:e-p270:32:32-p271:32:32-p272:64:64-i64:64-i128:128-f80:128-n8:16:32:64-S128"
target triple = "x86_64-pc-linux-gnu"

; Function Attrs: nounwind uwtable
define internal i32 @text_getc(ptr noundef %0) #0 {
  %2 = alloca ptr, align 8
  %3 = alloca i32, align 4
  store ptr %0, ptr %2, align 8, !tbaa !13
  call void @llvm.lifetime.start.p0(i64 4, ptr %3) #6
  %4 = load ptr, ptr %2, align 8, !tbaa !13
  %5 = call i32 @getc(ptr noundef %4)
  store i32 %5, ptr %3, align 4, !tbaa !11
  %6 = load i32, ptr %3, align 4, !tbaa !11
  %7 = icmp eq i32 %6, 35
  br i1 %7, label %8, label %21

8:                                                ; preds = %1
  br label %9

9:                                                ; preds = %18, %8
  %10 = load ptr, ptr %2, align 8, !tbaa !13
  %11 = call i32 @getc(ptr noundef %10)
  store i32 %11, ptr %3, align 4, !tbaa !11
  br label %12

12:                                               ; preds = %9
  %13 = load i32, ptr %3, align 4, !tbaa !11
  %14 = icmp ne i32 %13, 10
  br i1 %14, label %15, label %18

15:                                               ; preds = %12
  %16 = load i32, ptr %3, align 4, !tbaa !11
  %17 = icmp ne i32 %16, -1
  br label %18

18:                                               ; preds = %15, %12
  %19 = phi i1 [ false, %12 ], [ %17, %15 ]
  br i1 %19, label %9, label %20, !llvm.loop !72

20:                                               ; preds = %18
  br label %21

21:                                               ; preds = %20, %1
  %22 = load i32, ptr %3, align 4, !tbaa !11
  call void @llvm.lifetime.end.p0(i64 4, ptr %3) #6
  ret i32 %22
}

; Function Attrs: nounwind uwtable
define internal i32 @read_text_integer(ptr noundef %0, ptr noundef %1, ptr noundef %2) #0 {
  %4 = alloca i32, align 4
  %5 = alloca ptr, align 8
  %6 = alloca ptr, align 8
  %7 = alloca ptr, align 8
  %8 = alloca i32, align 4
  %9 = alloca i64, align 8
  %10 = alloca i32, align 4
  store ptr %0, ptr %5, align 8, !tbaa !13
  store ptr %1, ptr %6, align 8, !tbaa !20
  store ptr %2, ptr %7, align 8, !tbaa !22
  call void @llvm.lifetime.start.p0(i64 4, ptr %8) #6
  call void @llvm.lifetime.start.p0(i64 8, ptr %9) #6
  br label %11

11:                                               ; preds = %20, %3
  %12 = load ptr, ptr %5, align 8, !tbaa !13
  %13 = call i32 @text_getc(ptr noundef %12)
  store i32 %13, ptr %8, align 4, !tbaa !11
  %14 = load i32, ptr %8, align 4, !tbaa !11
  %15 = icmp eq i32 %14, -1
  br i1 %15, label %16, label %19

16:                                               ; preds = %11
  %17 = load i32, ptr %8, align 4, !tbaa !11
  %18 = load ptr, ptr %7, align 8, !tbaa !22
  store i32 %17, ptr %18, align 4, !tbaa !11
  store i32 0, ptr %4, align 4
  store i32 1, ptr %10, align 4
  br label %75

19:                                               ; preds = %11
  br label %20

20:                                               ; preds = %19
  %21 = call ptr @__ctype_b_loc() #7
  %22 = load ptr, ptr %21, align 8, !tbaa !24
  %23 = load i32, ptr %8, align 4, !tbaa !11
  %24 = sext i32 %23 to i64
  %25 = getelementptr inbounds i16, ptr %22, i64 %24
  %26 = load i16, ptr %25, align 2, !tbaa !26
  %27 = zext i16 %26 to i32
  %28 = and i32 %27, 8192
  %29 = icmp ne i32 %28, 0
  br i1 %29, label %11, label %30, !llvm.loop !28

30:                                               ; preds = %20
  %31 = call ptr @__ctype_b_loc() #7
  %32 = load ptr, ptr %31, align 8, !tbaa !24
  %33 = load i32, ptr %8, align 4, !tbaa !11
  %34 = sext i32 %33 to i64
  %35 = getelementptr inbounds i16, ptr %32, i64 %34
  %36 = load i16, ptr %35, align 2, !tbaa !26
  %37 = zext i16 %36 to i32
  %38 = and i32 %37, 2048
  %39 = icmp ne i32 %38, 0
  br i1 %39, label %43, label %40

40:                                               ; preds = %30
  %41 = load i32, ptr %8, align 4, !tbaa !11
  %42 = load ptr, ptr %7, align 8, !tbaa !22
  store i32 %41, ptr %42, align 4, !tbaa !11
  store i32 0, ptr %4, align 4
  store i32 1, ptr %10, align 4
  br label %75

43:                                               ; preds = %30
  %44 = load i32, ptr %8, align 4, !tbaa !11
  %45 = sub nsw i32 %44, 48
  %46 = sext i32 %45 to i64
  store i64 %46, ptr %9, align 8, !tbaa !15
  br label %47

47:                                               ; preds = %62, %43
  %48 = load ptr, ptr %5, align 8, !tbaa !13
  %49 = call i32 @text_getc(ptr noundef %48)
  store i32 %49, ptr %8, align 4, !tbaa !11
  %50 = icmp ne i32 %49, -1
  br i1 %50, label %51, label %70

51:                                               ; preds = %47
  %52 = call ptr @__ctype_b_loc() #7
  %53 = load ptr, ptr %52, align 8, !tbaa !24
  %54 = load i32, ptr %8, align 4, !tbaa !11
  %55 = sext i32 %54 to i64
  %56 = getelementptr inbounds i16, ptr %53, i64 %55
  %57 = load i16, ptr %56, align 2, !tbaa !26
  %58 = zext i16 %57 to i32
  %59 = and i32 %58, 2048
  %60 = icmp ne i32 %59, 0
  br i1 %60, label %62, label %61

61:                                               ; preds = %51
  br label %70

62:                                               ; preds = %51
  %63 = load i64, ptr %9, align 8, !tbaa !15
  %64 = mul nsw i64 %63, 10
  store i64 %64, ptr %9, align 8, !tbaa !15
  %65 = load i32, ptr %8, align 4, !tbaa !11
  %66 = sub nsw i32 %65, 48
  %67 = sext i32 %66 to i64
  %68 = load i64, ptr %9, align 8, !tbaa !15
  %69 = add nsw i64 %68, %67
  store i64 %69, ptr %9, align 8, !tbaa !15
  br label %47, !llvm.loop !29

70:                                               ; preds = %61, %47
  %71 = load i64, ptr %9, align 8, !tbaa !15
  %72 = load ptr, ptr %6, align 8, !tbaa !20
  store i64 %71, ptr %72, align 8, !tbaa !15
  %73 = load i32, ptr %8, align 4, !tbaa !11
  %74 = load ptr, ptr %7, align 8, !tbaa !22
  store i32 %73, ptr %74, align 4, !tbaa !11
  store i32 1, ptr %4, align 4
  store i32 1, ptr %10, align 4
  br label %75

75:                                               ; preds = %70, %40, %16
  call void @llvm.lifetime.end.p0(i64 8, ptr %9) #6
  call void @llvm.lifetime.end.p0(i64 4, ptr %8) #6
  %76 = load i32, ptr %4, align 4
  ret i32 %76
}