; Function Attrs: nofree nounwind uwtable
define internal fastcc range(i32 0, 2) i32 @read_text_integer(ptr noundef nonnull captures(none) %0, ptr noundef nonnull writeonly captures(none) %1, ptr noundef nonnull writeonly captures(none) %2) unnamed_addr #3 {
  br label %4

4:                                                ; preds = %9, %3
  %5 = tail call i32 @getc(ptr noundef nonnull %0)
  %6 = icmp eq i32 %5, 35
  br i1 %6, label %.preheader.i, label %text_getc.exit

.preheader.i:                                     ; preds = %4, %.preheader.i
  %7 = tail call i32 @getc(ptr noundef nonnull %0)
  switch i32 %7, label %.preheader.i [
    i32 -1, label %text_getc.exit
    i32 10, label %text_getc.exit
  ]

text_getc.exit:                                   ; preds = %.preheader.i, %.preheader.i, %4
  %.0.i = phi i32 [ %5, %4 ], [ %7, %.preheader.i ], [ %7, %.preheader.i ]
  %8 = icmp eq i32 %.0.i, -1
  br i1 %8, label %.loopexit, label %9

9:                                                ; preds = %text_getc.exit
  %10 = tail call ptr @__ctype_b_loc() #10
  %11 = load ptr, ptr %10, align 8, !tbaa !13
  %12 = sext i32 %.0.i to i64
  %13 = getelementptr inbounds i16, ptr %11, i64 %12
  %14 = load i16, ptr %13, align 2, !tbaa !15
  %15 = zext i16 %14 to i32
  %16 = and i32 %15, 8192
  %.not = icmp eq i32 %16, 0
  br i1 %.not, label %17, label %4, !llvm.loop !17

17:                                               ; preds = %9
  %18 = and i32 %15, 2048
  %.not21 = icmp eq i32 %18, 0
  br i1 %.not21, label %.loopexit, label %19

19:                                               ; preds = %17
  %20 = add nsw i32 %.0.i, -48
  %21 = sext i32 %20 to i64
  br label %22

22:                                               ; preds = %32, %19
  %.0 = phi i64 [ %21, %19 ], [ %36, %32 ]
  %23 = tail call i32 @getc(ptr noundef nonnull %0)
  %24 = icmp eq i32 %23, 35
  br i1 %24, label %.preheader.i25, label %text_getc.exit26

.preheader.i25:                                   ; preds = %22, %.preheader.i25
  %25 = tail call i32 @getc(ptr noundef nonnull %0)
  switch i32 %25, label %.preheader.i25 [
    i32 -1, label %text_getc.exit26
    i32 10, label %text_getc.exit26
  ]

text_getc.exit26:                                 ; preds = %.preheader.i25, %.preheader.i25, %22
  %.0.i24 = phi i32 [ %23, %22 ], [ %25, %.preheader.i25 ], [ %25, %.preheader.i25 ]
  %.not22 = icmp eq i32 %.0.i24, -1
  br i1 %.not22, label %37, label %26

26:                                               ; preds = %text_getc.exit26
  %27 = load ptr, ptr %10, align 8, !tbaa !13
  %28 = sext i32 %.0.i24 to i64
  %29 = getelementptr inbounds i16, ptr %27, i64 %28
  %30 = load i16, ptr %29, align 2, !tbaa !15
  %31 = and i16 %30, 2048
  %.not23 = icmp eq i16 %31, 0
  br i1 %.not23, label %37, label %32

32:                                               ; preds = %26
  %33 = mul nsw i64 %.0, 10
  %34 = add nsw i32 %.0.i24, -48
  %35 = sext i32 %34 to i64
  %36 = add nsw i64 %33, %35
  br label %22, !llvm.loop !19

37:                                               ; preds = %26, %text_getc.exit26
  store i64 %.0, ptr %1, align 8, !tbaa !9
  br label %.loopexit

.loopexit:                                        ; preds = %text_getc.exit, %17, %37
  %.0.i24.lcssa.sink = phi i32 [ %.0.i24, %37 ], [ %.0.i, %17 ], [ -1, %text_getc.exit ]
  %.018 = phi i32 [ 1, %37 ], [ 0, %17 ], [ 0, %text_getc.exit ]
  store i32 %.0.i24.lcssa.sink, ptr %2, align 4, !tbaa !11
  ret i32 %.018
}